; Function Attrs: cold nounwind optsize uwtable
define internal noundef i32 @ape_decode_close(ptr noundef readonly captures(none) %0) #0 {
  %2 = getelementptr inbounds nuw i8, ptr %0, i64 32
  %3 = load ptr, ptr %2, align 8, !tbaa !4
  %4 = getelementptr inbounds nuw i8, ptr %3, i64 7216
  br label %5

5:                                                ; preds = %1, %5
  %indvars.iv = phi i64 [ 0, %1 ], [ %indvars.iv.next, %5 ]
  %6 = getelementptr inbounds nuw [3 x ptr], ptr %4, i64 0, i64 %indvars.iv
  tail call void @av_freep(ptr noundef nonnull %6) #14
  %indvars.iv.next = add nuw nsw i64 %indvars.iv, 1
  %exitcond.not = icmp eq i64 %indvars.iv.next, 3
  br i1 %exitcond.not, label %7, label %5, !llvm.loop !102

7:                                                ; preds = %5
  %8 = getelementptr inbounds nuw i8, ptr %3, i64 7144
  tail call void @av_freep(ptr noundef nonnull %8) #14
  %9 = getelementptr inbounds nuw i8, ptr %3, i64 7176
  tail call void @av_freep(ptr noundef nonnull %9) #14
  %10 = getelementptr inbounds nuw i8, ptr %3, i64 7544
  tail call void @av_freep(ptr noundef nonnull %10) #14
  %11 = getelementptr inbounds nuw i8, ptr %3, i64 7560
  store i32 0, ptr %11, align 8, !tbaa !71
  %12 = getelementptr inbounds nuw i8, ptr %3, i64 7152
  store i32 0, ptr %12, align 8, !tbaa !103
  ret i32 0
}